; Listing generated by Microsoft (R) Optimizing Compiler Version 19.38.33133.0 

	TITLE	D:\dev\CSAPPExercises\Chapter 4\Practice Problem 4.3\main.obj
	.686P
	.XMM
	include listing.inc
	.model	flat

INCLUDELIB LIBCMT
INCLUDELIB OLDNAMES

PUBLIC	_rSum
; Function compile flags: /Odtp
; File D:\dev\CSAPPExercises\Chapter 4\Practice Problem 4.3\main.c
_TEXT	SEGMENT
_Start$ = 8						; size = 4
_Count$ = 12						; size = 4
_rSum	PROC

; 2    : {

  00000	55		 push	 ebp
  00001	8b ec		 mov	 ebp, esp

; 3    : 	if (Count <= 0)

  00003	83 7d 0c 00	 cmp	 DWORD PTR _Count$[ebp], 0
  00007	7f 04		 jg	 SHORT $LN2@rSum

; 4    : 		return 0;

  00009	33 c0		 xor	 eax, eax
  0000b	eb 1b		 jmp	 SHORT $LN1@rSum
$LN2@rSum:

; 5    : 	return *Start + rSum(Start + 1, Count - 1);

  0000d	8b 45 0c	 mov	 eax, DWORD PTR _Count$[ebp]
  00010	83 e8 01	 sub	 eax, 1
  00013	50		 push	 eax
  00014	8b 4d 08	 mov	 ecx, DWORD PTR _Start$[ebp]
  00017	83 c1 04	 add	 ecx, 4
  0001a	51		 push	 ecx
  0001b	e8 00 00 00 00	 call	 _rSum
  00020	83 c4 08	 add	 esp, 8
  00023	8b 55 08	 mov	 edx, DWORD PTR _Start$[ebp]
  00026	03 02		 add	 eax, DWORD PTR [edx]
$LN1@rSum:

; 6    : }

  00028	5d		 pop	 ebp
  00029	c3		 ret	 0
_rSum	ENDP
_TEXT	ENDS
END
