; Listing generated by Microsoft (R) Optimizing Compiler Version 19.38.33133.0 

	TITLE	D:\dev\CSAPPExercises\Chapter 4\Practice Problem 4.4\main.obj
	.686P
	.XMM
	include listing.inc
	.model	flat

INCLUDELIB LIBCMT
INCLUDELIB OLDNAMES

PUBLIC	_AbsSum
EXTRN	_rSum:PROC
; Function compile flags: /Odtp
; File D:\dev\CSAPPExercises\Chapter 4\Practice Problem 4.4\main.c
_TEXT	SEGMENT
tv73 = -8						; size = 4
_Value$ = -4						; size = 4
_Start$ = 8						; size = 4
_Count$ = 12						; size = 4
_AbsSum	PROC

; 2    : {

  00000	55		 push	 ebp
  00001	8b ec		 mov	 ebp, esp
  00003	83 ec 08	 sub	 esp, 8

; 3    : 	if (Count <= 0)

  00006	83 7d 0c 00	 cmp	 DWORD PTR _Count$[ebp], 0
  0000a	7f 04		 jg	 SHORT $LN2@AbsSum

; 4    : 		return 0;

  0000c	33 c0		 xor	 eax, eax
  0000e	eb 33		 jmp	 SHORT $LN1@AbsSum
$LN2@AbsSum:

; 5    : 	int Value = *Start + rSum(Start + 1, Count - 1);

  00010	8b 45 0c	 mov	 eax, DWORD PTR _Count$[ebp]
  00013	83 e8 01	 sub	 eax, 1
  00016	50		 push	 eax
  00017	8b 4d 08	 mov	 ecx, DWORD PTR _Start$[ebp]
  0001a	83 c1 04	 add	 ecx, 4
  0001d	51		 push	 ecx
  0001e	e8 00 00 00 00	 call	 _rSum
  00023	83 c4 08	 add	 esp, 8
  00026	8b 55 08	 mov	 edx, DWORD PTR _Start$[ebp]
  00029	03 02		 add	 eax, DWORD PTR [edx]
  0002b	89 45 fc	 mov	 DWORD PTR _Value$[ebp], eax

; 6    : 	return Value < 0 ? -Value : Value;

  0002e	79 0a		 jns	 SHORT $LN4@AbsSum
  00030	8b 45 fc	 mov	 eax, DWORD PTR _Value$[ebp]
  00033	f7 d8		 neg	 eax
  00035	89 45 f8	 mov	 DWORD PTR tv73[ebp], eax
  00038	eb 06		 jmp	 SHORT $LN5@AbsSum
$LN4@AbsSum:
  0003a	8b 4d fc	 mov	 ecx, DWORD PTR _Value$[ebp]
  0003d	89 4d f8	 mov	 DWORD PTR tv73[ebp], ecx
$LN5@AbsSum:
  00040	8b 45 f8	 mov	 eax, DWORD PTR tv73[ebp]
$LN1@AbsSum:

; 7    : }

  00043	8b e5		 mov	 esp, ebp
  00045	5d		 pop	 ebp
  00046	c3		 ret	 0
_AbsSum	ENDP
_TEXT	ENDS
END
